target datalayout = "e-m:e-p270:32:32-p271:32:32-p272:64:64-i64:64-i128:128-f80:128-n8:16:32:64-S128"
target triple = "x86_64-pc-linux-gnu"

%struct._dcerpc_info = type { ptr, i32, i64, i8, i32, i32, i32, i32, i32, i32, i32, i32, i32, i32, ptr, ptr, ptr }

@hf_lsarpc_lsa_LookupNames_count = internal global i32 -1, align 4
@hf_lsarpc_lsa_LookupNames_handle = internal global i32 -1, align 4
@hf_lsarpc_lsa_LookupNames_level = internal global i32 -1, align 4
@hf_lsarpc_lsa_LookupNames_num_names = internal global i32 -1, align 4
@hf_lsarpc_lsa_LookupNames_sids = internal global i32 -1, align 4
@hf_lsarpc_names = internal global i32 -1, align 4
@.str.1019 = private unnamed_addr constant [16 x i8] c"lsa_LookupNames\00", align 1
@.str.1139 = private unnamed_addr constant [34 x i8] c"Pointer to Handle (policy_handle)\00", align 1
@.str.1155 = private unnamed_addr constant [17 x i8] c"Pointer to Names\00", align 1
@.str.1156 = private unnamed_addr constant [36 x i8] c"Pointer to Sids (lsa_TransSidArray)\00", align 1
@.str.1157 = private unnamed_addr constant [26 x i8] c"Pointer to Count (uint32)\00", align 1

; Function Attrs: nounwind uwtable
define hidden i32 @lsarpc_dissect_enum_lsa_LookupNamesLevel(ptr noundef %0, i32 noundef %1, ptr noundef %2, ptr noundef %3, ptr noundef %4, ptr noundef %5, i32 noundef %6, ptr noundef %7) #0 {
  %9 = alloca ptr, align 8
  %10 = alloca i32, align 4
  %11 = alloca ptr, align 8
  %12 = alloca ptr, align 8
  %13 = alloca ptr, align 8
  %14 = alloca ptr, align 8
  %15 = alloca i32, align 4
  %16 = alloca ptr, align 8
  %17 = alloca i32, align 4
  store ptr %0, ptr %9, align 8
  store i32 %1, ptr %10, align 4
  store ptr %2, ptr %11, align 8
  store ptr %3, ptr %12, align 8
  store ptr %4, ptr %13, align 8
  store ptr %5, ptr %14, align 8
  store i32 %6, ptr %15, align 4
  store ptr %7, ptr %16, align 8
  store i32 0, ptr %17, align 4
  %18 = load ptr, ptr %16, align 8
  %19 = icmp ne ptr %18, null
  br i1 %19, label %20, label %23

20:                                               ; preds = %8
  %21 = load ptr, ptr %16, align 8
  %22 = load i32, ptr %21, align 4
  store i32 %22, ptr %17, align 4
  br label %23

23:                                               ; preds = %20, %8
  %24 = load ptr, ptr %9, align 8
  %25 = load i32, ptr %10, align 4
  %26 = load ptr, ptr %11, align 8
  %27 = load ptr, ptr %12, align 8
  %28 = load ptr, ptr %13, align 8
  %29 = load ptr, ptr %14, align 8
  %30 = load i32, ptr %15, align 4
  %31 = call i32 @dissect_ndr_uint1632(ptr noundef %24, i32 noundef %25, ptr noundef %26, ptr noundef %27, ptr noundef %28, ptr noundef %29, i32 noundef %30, ptr noundef %17)
  store i32 %31, ptr %10, align 4
  %32 = load ptr, ptr %16, align 8
  %33 = icmp ne ptr %32, null
  br i1 %33, label %34, label %37

34:                                               ; preds = %23
  %35 = load i32, ptr %17, align 4
  %36 = load ptr, ptr %16, align 8
  store i32 %35, ptr %36, align 4
  br label %37

37:                                               ; preds = %34, %23
  %38 = load i32, ptr %10, align 4
  ret i32 %38
}

; Function Attrs: nounwind uwtable
define internal i32 @lsarpc_dissect_element_lsa_LookupNames_count(ptr noundef %0, i32 noundef %1, ptr noundef %2, ptr noundef %3, ptr noundef %4, ptr noundef %5) #0 {
  %7 = alloca ptr, align 8
  %8 = alloca i32, align 4
  %9 = alloca ptr, align 8
  %10 = alloca ptr, align 8
  %11 = alloca ptr, align 8
  %12 = alloca ptr, align 8
  store ptr %0, ptr %7, align 8
  store i32 %1, ptr %8, align 4
  store ptr %2, ptr %9, align 8
  store ptr %3, ptr %10, align 8
  store ptr %4, ptr %11, align 8
  store ptr %5, ptr %12, align 8
  %13 = load ptr, ptr %7, align 8
  %14 = load i32, ptr %8, align 4
  %15 = load ptr, ptr %9, align 8
  %16 = load ptr, ptr %10, align 8
  %17 = load ptr, ptr %11, align 8
  %18 = load ptr, ptr %12, align 8
  %19 = load i32, ptr @hf_lsarpc_lsa_LookupNames_count, align 4
  %20 = call i32 @dissect_ndr_toplevel_pointer(ptr noundef %13, i32 noundef %14, ptr noundef %15, ptr noundef %16, ptr noundef %17, ptr noundef %18, ptr noundef @lsarpc_dissect_element_lsa_LookupNames_count_, i32 noundef 1, ptr noundef @.str.1157, i32 noundef %19)
  store i32 %20, ptr %8, align 4
  %21 = load i32, ptr %8, align 4
  ret i32 %21
}

; Function Attrs: nounwind uwtable
define internal i32 @lsarpc_dissect_element_lsa_LookupNames_level(ptr noundef %0, i32 noundef %1, ptr noundef %2, ptr noundef %3, ptr noundef %4, ptr noundef %5) #0 {
  %7 = alloca ptr, align 8
  %8 = alloca i32, align 4
  %9 = alloca ptr, align 8
  %10 = alloca ptr, align 8
  %11 = alloca ptr, align 8
  %12 = alloca ptr, align 8
  store ptr %0, ptr %7, align 8
  store i32 %1, ptr %8, align 4
  store ptr %2, ptr %9, align 8
  store ptr %3, ptr %10, align 8
  store ptr %4, ptr %11, align 8
  store ptr %5, ptr %12, align 8
  %13 = load ptr, ptr %7, align 8
  %14 = load i32, ptr %8, align 4
  %15 = load ptr, ptr %9, align 8
  %16 = load ptr, ptr %10, align 8
  %17 = load ptr, ptr %11, align 8
  %18 = load ptr, ptr %12, align 8
  %19 = load i32, ptr @hf_lsarpc_lsa_LookupNames_level, align 4
  %20 = call i32 @lsarpc_dissect_enum_lsa_LookupNamesLevel(ptr noundef %13, i32 noundef %14, ptr noundef %15, ptr noundef %16, ptr noundef %17, ptr noundef %18, i32 noundef %19, ptr noundef null)
  store i32 %20, ptr %8, align 4
  %21 = load i32, ptr %8, align 4
  ret i32 %21
}

; Function Attrs: nounwind uwtable
define internal i32 @lsarpc_dissect_element_lsa_LookupNames_sids(ptr noundef %0, i32 noundef %1, ptr noundef %2, ptr noundef %3, ptr noundef %4, ptr noundef %5) #0 {
  %7 = alloca ptr, align 8
  %8 = alloca i32, align 4
  %9 = alloca ptr, align 8
  %10 = alloca ptr, align 8
  %11 = alloca ptr, align 8
  %12 = alloca ptr, align 8
  store ptr %0, ptr %7, align 8
  store i32 %1, ptr %8, align 4
  store ptr %2, ptr %9, align 8
  store ptr %3, ptr %10, align 8
  store ptr %4, ptr %11, align 8
  store ptr %5, ptr %12, align 8
  %13 = load ptr, ptr %7, align 8
  %14 = load i32, ptr %8, align 4
  %15 = load ptr, ptr %9, align 8
  %16 = load ptr, ptr %10, align 8
  %17 = load ptr, ptr %11, align 8
  %18 = load ptr, ptr %12, align 8
  %19 = load i32, ptr @hf_lsarpc_lsa_LookupNames_sids, align 4
  %20 = call i32 @dissect_ndr_toplevel_pointer(ptr noundef %13, i32 noundef %14, ptr noundef %15, ptr noundef %16, ptr noundef %17, ptr noundef %18, ptr noundef @lsarpc_dissect_element_lsa_LookupNames_sids_, i32 noundef 1, ptr noundef @.str.1156, i32 noundef %19)
  store i32 %20, ptr %8, align 4
  %21 = load i32, ptr %8, align 4
  ret i32 %21
}

; Function Attrs: nounwind uwtable
define internal i32 @lsarpc_dissect_element_lsa_LookupNames_names(ptr noundef %0, i32 noundef %1, ptr noundef %2, ptr noundef %3, ptr noundef %4, ptr noundef %5) #0 {
  %7 = alloca ptr, align 8
  %8 = alloca i32, align 4
  %9 = alloca ptr, align 8
  %10 = alloca ptr, align 8
  %11 = alloca ptr, align 8
  %12 = alloca ptr, align 8
  store ptr %0, ptr %7, align 8
  store i32 %1, ptr %8, align 4
  store ptr %2, ptr %9, align 8
  store ptr %3, ptr %10, align 8
  store ptr %4, ptr %11, align 8
  store ptr %5, ptr %12, align 8
  %13 = load ptr, ptr %7, align 8
  %14 = load i32, ptr %8, align 4
  %15 = load ptr, ptr %9, align 8
  %16 = load ptr, ptr %10, align 8
  %17 = load ptr, ptr %11, align 8
  %18 = load ptr, ptr %12, align 8
  %19 = load i32, ptr @hf_lsarpc_names, align 4
  %20 = call i32 @dissect_ndr_toplevel_pointer(ptr noundef %13, i32 noundef %14, ptr noundef %15, ptr noundef %16, ptr noundef %17, ptr noundef %18, ptr noundef @lsarpc_dissect_element_lsa_LookupNames3_names_X, i32 noundef 1, ptr noundef @.str.1155, i32 noundef %19)
  store i32 %20, ptr %8, align 4
  %21 = load i32, ptr %8, align 4
  ret i32 %21
}

; Function Attrs: nounwind uwtable
define internal i32 @lsarpc_dissect_element_lsa_LookupNames_num_names(ptr noundef %0, i32 noundef %1, ptr noundef %2, ptr noundef %3, ptr noundef %4, ptr noundef %5) #0 {
  %7 = alloca ptr, align 8
  %8 = alloca i32, align 4
  %9 = alloca ptr, align 8
  %10 = alloca ptr, align 8
  %11 = alloca ptr, align 8
  %12 = alloca ptr, align 8
  store ptr %0, ptr %7, align 8
  store i32 %1, ptr %8, align 4
  store ptr %2, ptr %9, align 8
  store ptr %3, ptr %10, align 8
  store ptr %4, ptr %11, align 8
  store ptr %5, ptr %12, align 8
  %13 = load ptr, ptr %7, align 8
  %14 = load i32, ptr %8, align 4
  %15 = load ptr, ptr %9, align 8
  %16 = load ptr, ptr %10, align 8
  %17 = load ptr, ptr %11, align 8
  %18 = load ptr, ptr %12, align 8
  %19 = load i32, ptr @hf_lsarpc_lsa_LookupNames_num_names, align 4
  %20 = call i32 @PIDL_dissect_uint32(ptr noundef %13, i32 noundef %14, ptr noundef %15, ptr noundef %16, ptr noundef %17, ptr noundef %18, i32 noundef %19, i32 noundef 0)
  store i32 %20, ptr %8, align 4
  %21 = load i32, ptr %8, align 4
  ret i32 %21
}

; Function Attrs: nounwind uwtable
define internal i32 @lsarpc_dissect_element_lsa_LookupNames_handle(ptr noundef %0, i32 noundef %1, ptr noundef %2, ptr noundef %3, ptr noundef %4, ptr noundef %5) #0 {
  %7 = alloca ptr, align 8
  %8 = alloca i32, align 4
  %9 = alloca ptr, align 8
  %10 = alloca ptr, align 8
  %11 = alloca ptr, align 8
  %12 = alloca ptr, align 8
  store ptr %0, ptr %7, align 8
  store i32 %1, ptr %8, align 4
  store ptr %2, ptr %9, align 8
  store ptr %3, ptr %10, align 8
  store ptr %4, ptr %11, align 8
  store ptr %5, ptr %12, align 8
  %13 = load ptr, ptr %7, align 8
  %14 = load i32, ptr %8, align 4
  %15 = load ptr, ptr %9, align 8
  %16 = load ptr, ptr %10, align 8
  %17 = load ptr, ptr %11, align 8
  %18 = load ptr, ptr %12, align 8
  %19 = load i32, ptr @hf_lsarpc_lsa_LookupNames_handle, align 4
  %20 = call i32 @dissect_ndr_toplevel_pointer(ptr noundef %13, i32 noundef %14, ptr noundef %15, ptr noundef %16, ptr noundef %17, ptr noundef %18, ptr noundef @lsarpc_dissect_element_lsa_LookupNames_handle_, i32 noundef 1, ptr noundef @.str.1139, i32 noundef %19)
  store i32 %20, ptr %8, align 4
  %21 = load i32, ptr %8, align 4
  ret i32 %21
}

; Function Attrs: nounwind uwtable
define internal i32 @lsarpc_dissect_lsa_LookupNames_request(ptr noundef %0, i32 noundef %1, ptr noundef %2, ptr noundef %3, ptr noundef %4, ptr noundef %5) #0 {
  %7 = alloca ptr, align 8
  %8 = alloca i32, align 4
  %9 = alloca ptr, align 8
  %10 = alloca ptr, align 8
  %11 = alloca ptr, align 8
  %12 = alloca ptr, align 8
  store ptr %0, ptr %7, align 8
  store i32 %1, ptr %8, align 4
  store ptr %2, ptr %9, align 8
  store ptr %3, ptr %10, align 8
  store ptr %4, ptr %11, align 8
  store ptr %5, ptr %12, align 8
  %13 = load ptr, ptr %11, align 8
  %14 = getelementptr inbounds %struct._dcerpc_info, ptr %13, i32 0, i32 15
  store ptr @.str.1019, ptr %14, align 8
  %15 = load ptr, ptr %7, align 8
  %16 = load i32, ptr %8, align 4
  %17 = load ptr, ptr %9, align 8
  %18 = load ptr, ptr %10, align 8
  %19 = load ptr, ptr %11, align 8
  %20 = load ptr, ptr %12, align 8
  %21 = call i32 @lsarpc_dissect_element_lsa_LookupNames_handle(ptr noundef %15, i32 noundef %16, ptr noundef %17, ptr noundef %18, ptr noundef %19, ptr noundef %20)
  store i32 %21, ptr %8, align 4
  %22 = load ptr, ptr %9, align 8
  %23 = load ptr, ptr %7, align 8
  %24 = load i32, ptr %8, align 4
  %25 = load ptr, ptr %11, align 8
  %26 = load ptr, ptr %12, align 8
  %27 = call i32 @dissect_deferred_pointers(ptr noundef %22, ptr noundef %23, i32 noundef %24, ptr noundef %25, ptr noundef %26)
  store i32 %27, ptr %8, align 4
  %28 = load ptr, ptr %7, align 8
  %29 = load i32, ptr %8, align 4
  %30 = load ptr, ptr %9, align 8
  %31 = load ptr, ptr %10, align 8
  %32 = load ptr, ptr %11, align 8
  %33 = load ptr, ptr %12, align 8
  %34 = call i32 @lsarpc_dissect_element_lsa_LookupNames_num_names(ptr noundef %28, i32 noundef %29, ptr noundef %30, ptr noundef %31, ptr noundef %32, ptr noundef %33)
  store i32 %34, ptr %8, align 4
  %35 = load ptr, ptr %9, align 8
  %36 = load ptr, ptr %7, align 8
  %37 = load i32, ptr %8, align 4
  %38 = load ptr, ptr %11, align 8
  %39 = load ptr, ptr %12, align 8
  %40 = call i32 @dissect_deferred_pointers(ptr noundef %35, ptr noundef %36, i32 noundef %37, ptr noundef %38, ptr noundef %39)
  store i32 %40, ptr %8, align 4
  %41 = load ptr, ptr %7, align 8
  %42 = load i32, ptr %8, align 4
  %43 = load ptr, ptr %9, align 8
  %44 = load ptr, ptr %10, align 8
  %45 = load ptr, ptr %11, align 8
  %46 = load ptr, ptr %12, align 8
  %47 = call i32 @lsarpc_dissect_element_lsa_LookupNames_names(ptr noundef %41, i32 noundef %42, ptr noundef %43, ptr noundef %44, ptr noundef %45, ptr noundef %46)
  store i32 %47, ptr %8, align 4
  %48 = load ptr, ptr %9, align 8
  %49 = load ptr, ptr %7, align 8
  %50 = load i32, ptr %8, align 4
  %51 = load ptr, ptr %11, align 8
  %52 = load ptr, ptr %12, align 8
  %53 = call i32 @dissect_deferred_pointers(ptr noundef %48, ptr noundef %49, i32 noundef %50, ptr noundef %51, ptr noundef %52)
  store i32 %53, ptr %8, align 4
  %54 = load ptr, ptr %7, align 8
  %55 = load i32, ptr %8, align 4
  %56 = load ptr, ptr %9, align 8
  %57 = load ptr, ptr %10, align 8
  %58 = load ptr, ptr %11, align 8
  %59 = load ptr, ptr %12, align 8
  %60 = call i32 @lsarpc_dissect_element_lsa_LookupNames_sids(ptr noundef %54, i32 noundef %55, ptr noundef %56, ptr noundef %57, ptr noundef %58, ptr noundef %59)
  store i32 %60, ptr %8, align 4
  %61 = load ptr, ptr %9, align 8
  %62 = load ptr, ptr %7, align 8
  %63 = load i32, ptr %8, align 4
  %64 = load ptr, ptr %11, align 8
  %65 = load ptr, ptr %12, align 8
  %66 = call i32 @dissect_deferred_pointers(ptr noundef %61, ptr noundef %62, i32 noundef %63, ptr noundef %64, ptr noundef %65)
  store i32 %66, ptr %8, align 4
  %67 = load ptr, ptr %7, align 8
  %68 = load i32, ptr %8, align 4
  %69 = load ptr, ptr %9, align 8
  %70 = load ptr, ptr %10, align 8
  %71 = load ptr, ptr %11, align 8
  %72 = load ptr, ptr %12, align 8
  %73 = call i32 @lsarpc_dissect_element_lsa_LookupNames_level(ptr noundef %67, i32 noundef %68, ptr noundef %69, ptr noundef %70, ptr noundef %71, ptr noundef %72)
  store i32 %73, ptr %8, align 4
  %74 = load ptr, ptr %9, align 8
  %75 = load ptr, ptr %7, align 8
  %76 = load i32, ptr %8, align 4
  %77 = load ptr, ptr %11, align 8
  %78 = load ptr, ptr %12, align 8
  %79 = call i32 @dissect_deferred_pointers(ptr noundef %74, ptr noundef %75, i32 noundef %76, ptr noundef %77, ptr noundef %78)
  store i32 %79, ptr %8, align 4
  %80 = load ptr, ptr %7, align 8
  %81 = load i32, ptr %8, align 4
  %82 = load ptr, ptr %9, align 8
  %83 = load ptr, ptr %10, align 8
  %84 = load ptr, ptr %11, align 8
  %85 = load ptr, ptr %12, align 8
  %86 = call i32 @lsarpc_dissect_element_lsa_LookupNames_count(ptr noundef %80, i32 noundef %81, ptr noundef %82, ptr noundef %83, ptr noundef %84, ptr noundef %85)
  store i32 %86, ptr %8, align 4
  %87 = load ptr, ptr %9, align 8
  %88 = load ptr, ptr %7, align 8
  %89 = load i32, ptr %8, align 4
  %90 = load ptr, ptr %11, align 8
  %91 = load ptr, ptr %12, align 8
  %92 = call i32 @dissect_deferred_pointers(ptr noundef %87, ptr noundef %88, i32 noundef %89, ptr noundef %90, ptr noundef %91)
  store i32 %92, ptr %8, align 4
  %93 = load i32, ptr %8, align 4
  ret i32 %93
}