; Function Attrs: nounwind uwtable
define internal i32 @lsarpc_dissect_lsa_LookupNames_request(ptr noundef %0, i32 noundef %1, ptr noundef %2, ptr noundef %3, ptr noundef initializes((80, 88)) %4, ptr noundef %5) #0 {
  %7 = alloca i32, align 4
  %8 = getelementptr inbounds nuw i8, ptr %4, i64 80
  store ptr @.str.1019, ptr %8, align 8
  %9 = load i32, ptr @hf_lsarpc_lsa_LookupNames_handle, align 4
  %10 = tail call i32 @dissect_ndr_toplevel_pointer(ptr noundef %0, i32 noundef %1, ptr noundef %2, ptr noundef %3, ptr noundef %4, ptr noundef %5, ptr noundef nonnull @lsarpc_dissect_element_lsa_LookupNames_handle_, i32 noundef 1, ptr noundef nonnull @.str.1139, i32 noundef %9) #5
  %11 = tail call i32 @dissect_deferred_pointers(ptr noundef %2, ptr noundef %0, i32 noundef %10, ptr noundef %4, ptr noundef %5) #5
  %12 = load i32, ptr @hf_lsarpc_lsa_LookupNames_num_names, align 4
  %13 = tail call i32 @PIDL_dissect_uint32(ptr noundef %0, i32 noundef %11, ptr noundef %2, ptr noundef %3, ptr noundef %4, ptr noundef %5, i32 noundef %12, i32 noundef 0) #5
  %14 = tail call i32 @dissect_deferred_pointers(ptr noundef %2, ptr noundef %0, i32 noundef %13, ptr noundef %4, ptr noundef %5) #5
  %15 = load i32, ptr @hf_lsarpc_names, align 4
  %16 = tail call i32 @dissect_ndr_toplevel_pointer(ptr noundef %0, i32 noundef %14, ptr noundef %2, ptr noundef %3, ptr noundef %4, ptr noundef %5, ptr noundef nonnull @lsarpc_dissect_element_lsa_LookupNames3_names_X, i32 noundef 1, ptr noundef nonnull @.str.1155, i32 noundef %15) #5
  %17 = tail call i32 @dissect_deferred_pointers(ptr noundef %2, ptr noundef %0, i32 noundef %16, ptr noundef %4, ptr noundef %5) #5
  %18 = load i32, ptr @hf_lsarpc_lsa_LookupNames_sids, align 4
  %19 = tail call i32 @dissect_ndr_toplevel_pointer(ptr noundef %0, i32 noundef %17, ptr noundef %2, ptr noundef %3, ptr noundef %4, ptr noundef %5, ptr noundef nonnull @lsarpc_dissect_element_lsa_LookupNames_sids_, i32 noundef 1, ptr noundef nonnull @.str.1156, i32 noundef %18) #5
  %20 = tail call i32 @dissect_deferred_pointers(ptr noundef %2, ptr noundef %0, i32 noundef %19, ptr noundef %4, ptr noundef %5) #5
  %21 = load i32, ptr @hf_lsarpc_lsa_LookupNames_level, align 4
  call void @llvm.lifetime.start.p0(i64 4, ptr nonnull %7)
  store i32 0, ptr %7, align 4
  %22 = call i32 @dissect_ndr_uint1632(ptr noundef %0, i32 noundef %20, ptr noundef %2, ptr noundef %3, ptr noundef %4, ptr noundef %5, i32 noundef %21, ptr noundef nonnull %7) #5
  call void @llvm.lifetime.end.p0(i64 4, ptr nonnull %7)
  %23 = call i32 @dissect_deferred_pointers(ptr noundef %2, ptr noundef %0, i32 noundef %22, ptr noundef %4, ptr noundef %5) #5
  %24 = load i32, ptr @hf_lsarpc_lsa_LookupNames_count, align 4
  %25 = call i32 @dissect_ndr_toplevel_pointer(ptr noundef %0, i32 noundef %23, ptr noundef %2, ptr noundef %3, ptr noundef %4, ptr noundef %5, ptr noundef nonnull @lsarpc_dissect_element_lsa_LookupNames_count_, i32 noundef 1, ptr noundef nonnull @.str.1157, i32 noundef %24) #5
  %26 = call i32 @dissect_deferred_pointers(ptr noundef %2, ptr noundef %0, i32 noundef %25, ptr noundef %4, ptr noundef %5) #5
  ret i32 %26
}